; Function Attrs: nounwind sspstrong uwtable
define dso_local range(i32 0, -2147483648) i32 @rb_scan_args(i32 noundef %0, ptr noundef nonnull %1, ptr noundef nonnull %2, ...) local_unnamed_addr #0 {
  %4 = alloca [1 x %struct.__va_list_tag], align 16
  %5 = alloca %struct.rb_scan_args_t, align 4
  call void @llvm.lifetime.start.p0(i64 24, ptr nonnull %4) #19
  call void @llvm.lifetime.start.p0(i64 20, ptr nonnull %5) #19
  call void @llvm.memset.p0.i64(ptr noundef nonnull align 4 dereferenceable(20) %5, i8 0, i64 20, i1 false)
  %6 = load i8, ptr %2, align 1, !tbaa !32
  %7 = sext i8 %6 to i32
  %8 = add nsw i32 %7, -48
  %9 = icmp ugt i32 %8, 9
  br i1 %9, label %20, label %10

10:                                               ; preds = %3
  %11 = getelementptr inbounds nuw i8, ptr %5, i64 4
  store i32 %8, ptr %11, align 4, !tbaa !98
  %12 = getelementptr i8, ptr %2, i64 1
  %13 = load i8, ptr %12, align 1, !tbaa !32
  %14 = sext i8 %13 to i32
  %15 = add nsw i32 %14, -48
  %16 = icmp ugt i32 %15, 9
  br i1 %16, label %20, label %17

17:                                               ; preds = %10
  %18 = getelementptr inbounds nuw i8, ptr %5, i64 8
  store i32 %15, ptr %18, align 4, !tbaa !100
  %19 = getelementptr i8, ptr %2, i64 2
  %.pre.i = load i8, ptr %19, align 1, !tbaa !32
  br label %20

20:                                               ; preds = %17, %10, %3
  %21 = phi i32 [ %15, %17 ], [ 0, %10 ], [ 0, %3 ]
  %22 = phi i32 [ %8, %17 ], [ %8, %10 ], [ 0, %3 ]
  %23 = phi i8 [ %.pre.i, %17 ], [ %13, %10 ], [ %6, %3 ]
  %.0.i = phi ptr [ %19, %17 ], [ %12, %10 ], [ %2, %3 ]
  %24 = icmp eq i8 %23, 42
  br i1 %24, label %25, label %28

25:                                               ; preds = %20
  %26 = getelementptr inbounds nuw i8, ptr %5, i64 16
  store i8 1, ptr %26, align 4, !tbaa !101
  %27 = getelementptr i8, ptr %.0.i, i64 1
  %.pre29.i = load i8, ptr %27, align 1, !tbaa !32
  br label %28

28:                                               ; preds = %25, %20
  %29 = phi i8 [ %.pre29.i, %25 ], [ %23, %20 ]
  %.1.i = phi ptr [ %27, %25 ], [ %.0.i, %20 ]
  %30 = sext i8 %29 to i32
  %31 = add nsw i32 %30, -48
  %32 = icmp ugt i32 %31, 9
  br i1 %32, label %36, label %33

33:                                               ; preds = %28
  %34 = getelementptr inbounds nuw i8, ptr %5, i64 12
  store i32 %31, ptr %34, align 4, !tbaa !102
  %35 = getelementptr i8, ptr %.1.i, i64 1
  %.pre30.i = load i8, ptr %35, align 1, !tbaa !32
  br label %36

36:                                               ; preds = %33, %28
  %37 = phi i32 [ %31, %33 ], [ 0, %28 ]
  %38 = phi i8 [ %.pre30.i, %33 ], [ %29, %28 ]
  %.2.i = phi ptr [ %35, %33 ], [ %.1.i, %28 ]
  %39 = icmp eq i8 %38, 58
  br i1 %39, label %40, label %43

40:                                               ; preds = %36
  %41 = getelementptr inbounds nuw i8, ptr %5, i64 17
  store i8 1, ptr %41, align 1, !tbaa !103
  %42 = getelementptr i8, ptr %.2.i, i64 1
  %.pr.i = load i8, ptr %42, align 1, !tbaa !32
  br label %43

43:                                               ; preds = %40, %36
  %44 = phi i8 [ %.pr.i, %40 ], [ %38, %36 ]
  %.3.i = phi ptr [ %42, %40 ], [ %.2.i, %36 ]
  %45 = icmp eq i8 %44, 38
  br i1 %45, label %46, label %49

46:                                               ; preds = %43
  %47 = getelementptr inbounds nuw i8, ptr %5, i64 18
  store i8 1, ptr %47, align 2, !tbaa !104
  %48 = getelementptr i8, ptr %.3.i, i64 1
  %.pre31.i = load i8, ptr %48, align 1, !tbaa !32
  br label %49

49:                                               ; preds = %46, %43
  %50 = phi i8 [ %.pre31.i, %46 ], [ %44, %43 ]
  %.not28.i = icmp eq i8 %50, 0
  br i1 %.not28.i, label %rb_scan_args_parse.exit, label %51

51:                                               ; preds = %49
  tail call void (ptr, ...) @rb_fatal(ptr noundef nonnull @.str.44, ptr noundef nonnull %2) #21
  unreachable

rb_scan_args_parse.exit:                          ; preds = %49
  call void @llvm.va_start.p0(ptr nonnull %4)
  %52 = call fastcc i32 @rb_scan_args_assign(ptr noundef %5, i32 noundef %0, ptr noundef %1, ptr noundef %4)
  call void @llvm.va_end.p0(ptr nonnull %4)
  %53 = icmp sgt i32 %52, -1
  br i1 %53, label %rb_scan_args_result.exit, label %54

54:                                               ; preds = %rb_scan_args_parse.exit
  %55 = add nuw nsw i32 %37, %22
  %56 = xor i32 %52, -1
  %57 = add nuw nsw i32 %55, %21
  %58 = select i1 %24, i32 -1, i32 %57
  call void @rb_error_arity(i32 noundef %56, i32 noundef %55, i32 noundef %58) #21
  unreachable

rb_scan_args_result.exit:                         ; preds = %rb_scan_args_parse.exit
  call void @llvm.lifetime.end.p0(i64 20, ptr nonnull %5) #19
  call void @llvm.lifetime.end.p0(i64 24, ptr nonnull %4) #19
  ret i32 %52
}